; Function Attrs: nounwind uwtable
define ptr @l_Std_Time_Hour_Ordinal_shiftTo1BasedHour___boxed(ptr noundef %0) local_unnamed_addr #0 {
  %2 = load ptr, ptr @l_Std_Time_Hour_instInhabitedOrdinal___closed__4, align 8, !tbaa !11
  %3 = ptrtoint ptr %0 to i64
  %4 = and i64 %3, 1
  %.not.i.i.i = icmp eq i64 %4, 0
  br i1 %.not.i.i.i, label %lean_int_dec_lt.exit.i, label %5, !prof !13

5:                                                ; preds = %1
  %6 = ptrtoint ptr %2 to i64
  %7 = and i64 %6, 1
  %.not7.i.i.i = icmp eq i64 %7, 0
  br i1 %.not7.i.i.i, label %lean_int_dec_lt.exit.thread8.i, label %lean_int_dec_lt.exit.thread.i, !prof !13

lean_int_dec_lt.exit.i:                           ; preds = %1
  %8 = tail call zeroext i1 @lean_int_big_lt(ptr noundef %0, ptr noundef %2) #4
  br i1 %8, label %l_Std_Time_Hour_Ordinal_shiftTo1BasedHour.exit, label %14

lean_int_dec_lt.exit.thread8.i:                   ; preds = %5
  %9 = tail call zeroext i1 @lean_int_big_lt(ptr noundef %0, ptr noundef %2) #4
  br i1 %9, label %l_Std_Time_Hour_Ordinal_shiftTo1BasedHour.exit.thread11, label %lean_dec.exit

lean_int_dec_lt.exit.thread.i:                    ; preds = %5
  %10 = lshr i64 %3, 1
  %11 = trunc i64 %10 to i32
  %12 = lshr i64 %6, 1
  %13 = trunc i64 %12 to i32
  %.not.i3 = icmp slt i32 %11, %13
  br i1 %.not.i3, label %l_Std_Time_Hour_Ordinal_shiftTo1BasedHour.exit.thread11, label %lean_dec.exit

14:                                               ; preds = %lean_int_dec_lt.exit.i
  %.val.i.i = load i32, ptr %0, align 4, !tbaa !5
  %15 = icmp sgt i32 %.val.i.i, 0
  br i1 %15, label %16, label %18, !prof !10

16:                                               ; preds = %14
  %17 = add nuw i32 %.val.i.i, 1
  store i32 %17, ptr %0, align 4, !tbaa !5
  br label %l_Std_Time_Hour_Ordinal_shiftTo1BasedHour.exit.thread

18:                                               ; preds = %14
  %.not.i.i = icmp eq i32 %.val.i.i, 0
  br i1 %.not.i.i, label %lean_dec.exit, label %19

19:                                               ; preds = %18
  tail call void @lean_inc_ref_cold(ptr noundef nonnull %0) #4
  br label %l_Std_Time_Hour_Ordinal_shiftTo1BasedHour.exit.threadthread-pre-split

l_Std_Time_Hour_Ordinal_shiftTo1BasedHour.exit.thread11: ; preds = %lean_int_dec_lt.exit.thread8.i, %lean_int_dec_lt.exit.thread.i
  %20 = load ptr, ptr @l_Std_Time_Hour_Ordinal_shiftTo1BasedHour___closed__7, align 8, !tbaa !11
  br label %lean_dec.exit

l_Std_Time_Hour_Ordinal_shiftTo1BasedHour.exit:   ; preds = %lean_int_dec_lt.exit.i
  %21 = load ptr, ptr @l_Std_Time_Hour_Ordinal_shiftTo1BasedHour___closed__7, align 8, !tbaa !11
  br label %l_Std_Time_Hour_Ordinal_shiftTo1BasedHour.exit.threadthread-pre-split

l_Std_Time_Hour_Ordinal_shiftTo1BasedHour.exit.threadthread-pre-split: ; preds = %l_Std_Time_Hour_Ordinal_shiftTo1BasedHour.exit, %19
  %.0.i5.ph = phi ptr [ %0, %19 ], [ %21, %l_Std_Time_Hour_Ordinal_shiftTo1BasedHour.exit ]
  %.pr = load i32, ptr %0, align 4, !tbaa !5
  br label %l_Std_Time_Hour_Ordinal_shiftTo1BasedHour.exit.thread

l_Std_Time_Hour_Ordinal_shiftTo1BasedHour.exit.thread: ; preds = %l_Std_Time_Hour_Ordinal_shiftTo1BasedHour.exit.threadthread-pre-split, %16
  %22 = phi i32 [ %.pr, %l_Std_Time_Hour_Ordinal_shiftTo1BasedHour.exit.threadthread-pre-split ], [ %17, %16 ]
  %.0.i5 = phi ptr [ %.0.i5.ph, %l_Std_Time_Hour_Ordinal_shiftTo1BasedHour.exit.threadthread-pre-split ], [ %0, %16 ]
  %23 = icmp sgt i32 %22, 1
  br i1 %23, label %24, label %26, !prof !15

24:                                               ; preds = %l_Std_Time_Hour_Ordinal_shiftTo1BasedHour.exit.thread
  %25 = add nsw i32 %22, -1
  store i32 %25, ptr %0, align 4, !tbaa !5
  br label %lean_dec.exit

26:                                               ; preds = %l_Std_Time_Hour_Ordinal_shiftTo1BasedHour.exit.thread
  %.not.i = icmp eq i32 %22, 0
  br i1 %.not.i, label %lean_dec.exit, label %27

27:                                               ; preds = %26
  tail call void @lean_dec_ref_cold(ptr noundef nonnull %0) #4
  br label %lean_dec.exit

lean_dec.exit:                                    ; preds = %18, %lean_int_dec_lt.exit.thread.i, %lean_int_dec_lt.exit.thread8.i, %27, %26, %24, %l_Std_Time_Hour_Ordinal_shiftTo1BasedHour.exit.thread11
  %.0.i6 = phi ptr [ %20, %l_Std_Time_Hour_Ordinal_shiftTo1BasedHour.exit.thread11 ], [ %.0.i5, %24 ], [ %.0.i5, %26 ], [ %.0.i5, %27 ], [ %0, %lean_int_dec_lt.exit.thread8.i ], [ %0, %lean_int_dec_lt.exit.thread.i ], [ %0, %18 ]
  ret ptr %.0.i6
}